target datalayout = "e-m:e-p270:32:32-p271:32:32-p272:64:64-i64:64-i128:128-f80:128-n8:16:32:64-S128"
target triple = "x86_64-pc-linux-gnu"

%struct._object = type { %union.anon, ptr }
%union.anon = type { i64 }
%struct.PyVarObject = type { %struct._object, i64 }
%struct.arraydescr = type { i8, i32, ptr, ptr, ptr, ptr, i32, i32 }
%struct.anon = type { i32, i32 }
%struct.arrayobject = type { %struct.PyVarObject, ptr, i64, ptr, ptr, i64 }

; Function Attrs: alwaysinline nounwind uwtable
define internal void @Py_INCREF(ptr noundef %0) #4 {
  %2 = alloca ptr, align 8
  %3 = alloca i32, align 4
  %4 = alloca i32, align 4
  store ptr %0, ptr %2, align 8, !tbaa !3
  call void @llvm.lifetime.start.p0(i64 4, ptr %3) #8
  %5 = load ptr, ptr %2, align 8, !tbaa !3
  %6 = getelementptr inbounds nuw %struct._object, ptr %5, i32 0, i32 0
  %7 = getelementptr inbounds nuw %struct.anon, ptr %6, i32 0, i32 0
  %8 = load i32, ptr %7, align 8, !tbaa !36
  store i32 %8, ptr %3, align 4, !tbaa !12
  %9 = load i32, ptr %3, align 4, !tbaa !12
  %10 = icmp slt i32 %9, 0
  br i1 %10, label %11, label %12

11:                                               ; preds = %1
  store i32 1, ptr %4, align 4
  br label %18

12:                                               ; preds = %1
  %13 = load i32, ptr %3, align 4, !tbaa !12
  %14 = add i32 %13, 1
  %15 = load ptr, ptr %2, align 8, !tbaa !3
  %16 = getelementptr inbounds nuw %struct._object, ptr %15, i32 0, i32 0
  %17 = getelementptr inbounds nuw %struct.anon, ptr %16, i32 0, i32 0
  store i32 %14, ptr %17, align 8, !tbaa !36
  store i32 0, ptr %4, align 4
  br label %18

18:                                               ; preds = %12, %11
  call void @llvm.lifetime.end.p0(i64 4, ptr %3) #8
  %19 = load i32, ptr %4, align 4
  switch i32 %19, label %21 [
    i32 0, label %20
    i32 1, label %20
  ]

20:                                               ; preds = %18, %18
  ret void

21:                                               ; preds = %18
  unreachable
}

; Function Attrs: inlinehint nounwind uwtable
define internal ptr @_Py_NewRef(ptr noundef %0) #3 {
  %2 = alloca ptr, align 8
  store ptr %0, ptr %2, align 8, !tbaa !3
  %3 = load ptr, ptr %2, align 8, !tbaa !3
  call void @Py_INCREF(ptr noundef %3)
  %4 = load ptr, ptr %2, align 8, !tbaa !3
  ret ptr %4
}

; Function Attrs: inlinehint nounwind uwtable
define internal i64 @Py_SIZE(ptr noundef %0) #3 {
  %2 = alloca ptr, align 8
  store ptr %0, ptr %2, align 8, !tbaa !3
  %3 = load ptr, ptr %2, align 8, !tbaa !3
  %4 = getelementptr inbounds nuw %struct.PyVarObject, ptr %3, i32 0, i32 1
  %5 = load i64, ptr %4, align 8, !tbaa !62
  ret i64 %5
}

; Function Attrs: nounwind uwtable
define internal ptr @array_inplace_repeat(ptr noundef %0, i64 noundef %1) #0 {
  %3 = alloca ptr, align 8
  %4 = alloca ptr, align 8
  %5 = alloca i64, align 8
  %6 = alloca i64, align 8
  %7 = alloca i32, align 4
  %8 = alloca i64, align 8
  store ptr %0, ptr %4, align 8, !tbaa !68
  store i64 %1, ptr %5, align 8, !tbaa !21
  call void @llvm.lifetime.start.p0(i64 8, ptr %6) #8
  %9 = load ptr, ptr %4, align 8, !tbaa !68
  %10 = call i64 @Py_SIZE(ptr noundef %9)
  store i64 %10, ptr %6, align 8, !tbaa !21
  %11 = load i64, ptr %6, align 8, !tbaa !21
  %12 = icmp sgt i64 %11, 0
  br i1 %12, label %13, label %79

13:                                               ; preds = %2
  %14 = load i64, ptr %5, align 8, !tbaa !21
  %15 = icmp ne i64 %14, 1
  br i1 %15, label %16, label %79

16:                                               ; preds = %13
  %17 = load i64, ptr %5, align 8, !tbaa !21
  %18 = icmp slt i64 %17, 0
  br i1 %18, label %19, label %20

19:                                               ; preds = %16
  store i64 0, ptr %5, align 8, !tbaa !21
  br label %20

20:                                               ; preds = %19, %16
  %21 = load ptr, ptr %4, align 8, !tbaa !68
  %22 = getelementptr inbounds nuw %struct.arrayobject, ptr %21, i32 0, i32 3
  %23 = load ptr, ptr %22, align 8, !tbaa !99
  %24 = getelementptr inbounds nuw %struct.arraydescr, ptr %23, i32 0, i32 1
  %25 = load i32, ptr %24, align 4, !tbaa !52
  %26 = icmp ne i32 %25, 0
  br i1 %26, label %27, label %39

27:                                               ; preds = %20
  %28 = load i64, ptr %6, align 8, !tbaa !21
  %29 = load ptr, ptr %4, align 8, !tbaa !68
  %30 = getelementptr inbounds nuw %struct.arrayobject, ptr %29, i32 0, i32 3
  %31 = load ptr, ptr %30, align 8, !tbaa !99
  %32 = getelementptr inbounds nuw %struct.arraydescr, ptr %31, i32 0, i32 1
  %33 = load i32, ptr %32, align 4, !tbaa !52
  %34 = sext i32 %33 to i64
  %35 = sdiv i64 9223372036854775807, %34
  %36 = icmp sgt i64 %28, %35
  br i1 %36, label %37, label %39

37:                                               ; preds = %27
  %38 = call ptr @PyErr_NoMemory()
  store ptr %38, ptr %3, align 8
  store i32 1, ptr %7, align 4
  br label %82

39:                                               ; preds = %27, %20
  call void @llvm.lifetime.start.p0(i64 8, ptr %8) #8
  %40 = load i64, ptr %6, align 8, !tbaa !21
  %41 = load ptr, ptr %4, align 8, !tbaa !68
  %42 = getelementptr inbounds nuw %struct.arrayobject, ptr %41, i32 0, i32 3
  %43 = load ptr, ptr %42, align 8, !tbaa !99
  %44 = getelementptr inbounds nuw %struct.arraydescr, ptr %43, i32 0, i32 1
  %45 = load i32, ptr %44, align 4, !tbaa !52
  %46 = sext i32 %45 to i64
  %47 = mul i64 %40, %46
  store i64 %47, ptr %8, align 8, !tbaa !21
  %48 = load i64, ptr %5, align 8, !tbaa !21
  %49 = icmp sgt i64 %48, 0
  br i1 %49, label %50, label %57

50:                                               ; preds = %39
  %51 = load i64, ptr %8, align 8, !tbaa !21
  %52 = load i64, ptr %5, align 8, !tbaa !21
  %53 = sdiv i64 9223372036854775807, %52
  %54 = icmp sgt i64 %51, %53
  br i1 %54, label %55, label %57

55:                                               ; preds = %50
  %56 = call ptr @PyErr_NoMemory()
  store ptr %56, ptr %3, align 8
  store i32 1, ptr %7, align 4
  br label %76

57:                                               ; preds = %50, %39
  %58 = load ptr, ptr %4, align 8, !tbaa !68
  %59 = load i64, ptr %5, align 8, !tbaa !21
  %60 = load i64, ptr %6, align 8, !tbaa !21
  %61 = mul i64 %59, %60
  %62 = call i32 @array_resize(ptr noundef %58, i64 noundef %61)
  %63 = icmp eq i32 %62, -1
  br i1 %63, label %64, label %65

64:                                               ; preds = %57
  store ptr null, ptr %3, align 8
  store i32 1, ptr %7, align 4
  br label %76

65:                                               ; preds = %57
  %66 = load ptr, ptr %4, align 8, !tbaa !68
  %67 = getelementptr inbounds nuw %struct.arrayobject, ptr %66, i32 0, i32 1
  %68 = load ptr, ptr %67, align 8, !tbaa !70
  %69 = load i64, ptr %5, align 8, !tbaa !21
  %70 = load i64, ptr %8, align 8, !tbaa !21
  %71 = mul i64 %69, %70
  %72 = load ptr, ptr %4, align 8, !tbaa !68
  %73 = getelementptr inbounds nuw %struct.arrayobject, ptr %72, i32 0, i32 1
  %74 = load ptr, ptr %73, align 8, !tbaa !70
  %75 = load i64, ptr %8, align 8, !tbaa !21
  call void @_PyBytes_Repeat(ptr noundef %68, i64 noundef %71, ptr noundef %74, i64 noundef %75)
  store i32 0, ptr %7, align 4
  br label %76

76:                                               ; preds = %65, %64, %55
  call void @llvm.lifetime.end.p0(i64 8, ptr %8) #8
  %77 = load i32, ptr %7, align 4
  switch i32 %77, label %82 [
    i32 0, label %78
  ]

78:                                               ; preds = %76
  br label %79

79:                                               ; preds = %78, %13, %2
  %80 = load ptr, ptr %4, align 8, !tbaa !68
  %81 = call ptr @_Py_NewRef(ptr noundef %80)
  store ptr %81, ptr %3, align 8
  store i32 1, ptr %7, align 4
  br label %82

82:                                               ; preds = %79, %76, %37
  call void @llvm.lifetime.end.p0(i64 8, ptr %6) #8
  %83 = load ptr, ptr %3, align 8
  ret ptr %83
}