; Function Attrs: nounwind uwtable
define internal ptr @array_inplace_repeat(ptr noundef %0, i64 noundef %1) #0 {
  %3 = getelementptr i8, ptr %0, i64 16
  %.val = load i64, ptr %3, align 8, !tbaa !40
  %4 = icmp sgt i64 %.val, 0
  %5 = icmp ne i64 %1, 1
  %or.cond = and i1 %5, %4
  br i1 %or.cond, label %6, label %31

6:                                                ; preds = %2
  %spec.store.select = tail call i64 @llvm.smax.i64(i64 %1, i64 0)
  %7 = getelementptr inbounds nuw i8, ptr %0, i64 40
  %8 = load ptr, ptr %7, align 8, !tbaa !76
  %9 = getelementptr inbounds nuw i8, ptr %8, i64 4
  %10 = load i32, ptr %9, align 4, !tbaa !49
  %.not = icmp eq i32 %10, 0
  br i1 %.not, label %._crit_edge, label %11

11:                                               ; preds = %6
  %12 = sext i32 %10 to i64
  %13 = sdiv i64 9223372036854775807, %12
  %14 = icmp sgt i64 %.val, %13
  br i1 %14, label %15, label %._crit_edge

15:                                               ; preds = %11
  %16 = tail call ptr @PyErr_NoMemory() #11
  br label %_Py_NewRef.exit

._crit_edge:                                      ; preds = %6, %11
  %.pre-phi = phi i64 [ %12, %11 ], [ 0, %6 ]
  %17 = mul i64 %.val, %.pre-phi
  %.not27 = icmp slt i64 %1, 1
  br i1 %.not27, label %23, label %18

18:                                               ; preds = %._crit_edge
  %19 = udiv i64 9223372036854775807, %spec.store.select
  %20 = icmp sgt i64 %17, %19
  br i1 %20, label %21, label %23

21:                                               ; preds = %18
  %22 = tail call ptr @PyErr_NoMemory() #11
  br label %_Py_NewRef.exit

23:                                               ; preds = %18, %._crit_edge
  %24 = mul i64 %.val, %spec.store.select
  %25 = tail call fastcc i32 @array_resize(ptr noundef nonnull %0, i64 noundef %24)
  %26 = icmp eq i32 %25, -1
  br i1 %26, label %_Py_NewRef.exit, label %27

27:                                               ; preds = %23
  %28 = getelementptr inbounds nuw i8, ptr %0, i64 24
  %29 = load ptr, ptr %28, align 8, !tbaa !53
  %30 = mul i64 %17, %spec.store.select
  tail call void @_PyBytes_Repeat(ptr noundef %29, i64 noundef %30, ptr noundef %29, i64 noundef %17) #11
  br label %31

31:                                               ; preds = %27, %2
  %32 = load i32, ptr %0, align 8, !tbaa !17
  %33 = icmp slt i32 %32, 0
  br i1 %33, label %_Py_NewRef.exit, label %34

34:                                               ; preds = %31
  %35 = add nuw i32 %32, 1
  store i32 %35, ptr %0, align 8, !tbaa !17
  br label %_Py_NewRef.exit

_Py_NewRef.exit:                                  ; preds = %23, %21, %34, %31, %15
  %.0 = phi ptr [ %16, %15 ], [ %0, %31 ], [ %0, %34 ], [ null, %23 ], [ %22, %21 ]
  ret ptr %.0
}